; Function Attrs: mustprogress uwtable
define void @cvSetIPLAllocators(ptr noundef %0, ptr noundef %1, ptr noundef %2, ptr noundef %3, ptr noundef %4) local_unnamed_addr #0 personality ptr @__gxx_personality_v0 {
  %6 = alloca %"class.std::__cxx11::basic_string", align 8
  %7 = alloca %"class.std::allocator", align 1
  %8 = icmp ne ptr %0, null
  %9 = zext i1 %8 to i32
  %10 = icmp ne ptr %1, null
  %11 = zext i1 %10 to i32
  %12 = add nuw nsw i32 %11, %9
  %13 = icmp ne ptr %2, null
  %14 = zext i1 %13 to i32
  %15 = add nuw nsw i32 %12, %14
  %16 = icmp ne ptr %3, null
  %17 = zext i1 %16 to i32
  %18 = add nuw nsw i32 %15, %17
  %19 = icmp ne ptr %4, null
  %20 = zext i1 %19 to i32
  %21 = add nuw nsw i32 %18, %20
  switch i32 %21, label %22 [
    i32 5, label %32
    i32 0, label %32
  ]

22:                                               ; preds = %5
  call void @llvm.lifetime.start.p0(i64 32, ptr nonnull %6) #12
  call void @llvm.lifetime.start.p0(i64 1, ptr nonnull %7) #12
  call void @_ZNSt7__cxx1112basic_stringIcSt11char_traitsIcESaIcEEC2EPKcRKS3_(ptr noundef nonnull align 8 dereferenceable(32) %6, ptr noundef nonnull @.str, ptr noundef nonnull align 1 dereferenceable(1) %7)
  invoke void @_ZN2cv5errorEiRKNSt7__cxx1112basic_stringIcSt11char_traitsIcESaIcEEEPKcS9_i(i32 noundef -5, ptr noundef nonnull align 8 dereferenceable(32) %6, ptr noundef nonnull @__func__.cvSetIPLAllocators, ptr noundef nonnull @.str.1, i32 noundef 83) #13
          to label %23 unwind label %24

23:                                               ; preds = %22
  unreachable

24:                                               ; preds = %22
  %25 = landingpad { ptr, i32 }
          cleanup
  %26 = load ptr, ptr %6, align 8, !tbaa !3
  %27 = getelementptr inbounds nuw i8, ptr %6, i64 16
  %28 = icmp eq ptr %26, %27
  br i1 %28, label %_ZNKSt7__cxx1112basic_stringIcSt11char_traitsIcESaIcEE11_M_is_localEv.exit.thread.i.i, label %_ZNKSt7__cxx1112basic_stringIcSt11char_traitsIcESaIcEE11_M_is_localEv.exit.i.i

_ZNKSt7__cxx1112basic_stringIcSt11char_traitsIcESaIcEE11_M_is_localEv.exit.thread.i.i: ; preds = %24
  %29 = getelementptr inbounds nuw i8, ptr %6, i64 8
  %30 = load i64, ptr %29, align 8, !tbaa !11
  %31 = icmp ult i64 %30, 16
  call void @llvm.assume(i1 %31)
  br label %_ZNSt7__cxx1112basic_stringIcSt11char_traitsIcESaIcEED2Ev.exit

_ZNKSt7__cxx1112basic_stringIcSt11char_traitsIcESaIcEE11_M_is_localEv.exit.i.i: ; preds = %24
  call void @_ZdlPv(ptr noundef %26) #14
  br label %_ZNSt7__cxx1112basic_stringIcSt11char_traitsIcESaIcEED2Ev.exit

_ZNSt7__cxx1112basic_stringIcSt11char_traitsIcESaIcEED2Ev.exit: ; preds = %_ZNKSt7__cxx1112basic_stringIcSt11char_traitsIcESaIcEE11_M_is_localEv.exit.i.i, %_ZNKSt7__cxx1112basic_stringIcSt11char_traitsIcESaIcEE11_M_is_localEv.exit.thread.i.i
  call void @llvm.lifetime.end.p0(i64 1, ptr nonnull %7) #12
  call void @llvm.lifetime.end.p0(i64 32, ptr nonnull %6) #12
  resume { ptr, i32 } %25

32:                                               ; preds = %5, %5
  store ptr %0, ptr @_ZL5CvIPL.0, align 8, !tbaa !12
  store ptr %1, ptr @_ZL5CvIPL.1, align 8, !tbaa !14
  store ptr %2, ptr @_ZL5CvIPL.2, align 8, !tbaa !15
  store ptr %3, ptr @_ZL5CvIPL.3, align 8, !tbaa !16
  store ptr %4, ptr @_ZL5CvIPL.4, align 8, !tbaa !17
  ret void
}